target datalayout = "e-m:e-p270:32:32-p271:32:32-p272:64:64-i64:64-i128:128-f80:128-n8:16:32:64-S128"
target triple = "x86_64-pc-linux-gnu"

%struct.RBignum = type { %struct.RBasic, %union.anon }
%struct.RBasic = type { i64, i64 }
%union.anon = type { %struct.anon, [8 x i8] }
%struct.anon = type { i64, ptr }

; Function Attrs: inlinehint nounwind sspstrong uwtable
define internal i32 @nlz_int32(i32 noundef %0) #2 {
  %2 = alloca i32, align 4
  store i32 %0, ptr %2, align 4, !tbaa !19
  %3 = load i32, ptr %2, align 4, !tbaa !19
  %4 = icmp ne i32 %3, 0
  br i1 %4, label %5, label %8

5:                                                ; preds = %1
  %6 = load i32, ptr %2, align 4, !tbaa !19
  %7 = call i32 @llvm.ctlz.i32(i32 %6, i1 true)
  br label %9

8:                                                ; preds = %1
  br label %9

9:                                                ; preds = %8, %5
  %10 = phi i32 [ %7, %5 ], [ 32, %8 ]
  ret i32 %10
}

; Function Attrs: inlinehint nounwind sspstrong willreturn memory(read) uwtable
define internal i64 @RB_FL_TEST_RAW(i64 noundef %0, i64 noundef %1) #8 {
  %3 = alloca i64, align 8
  %4 = alloca i64, align 8
  store i64 %0, ptr %3, align 8, !tbaa !7
  store i64 %1, ptr %4, align 8, !tbaa !7
  %5 = load i64, ptr %3, align 8, !tbaa !7
  %6 = inttoptr i64 %5 to ptr
  %7 = getelementptr inbounds nuw %struct.RBasic, ptr %6, i32 0, i32 0
  %8 = load i64, ptr %7, align 8, !tbaa !17
  %9 = load i64, ptr %4, align 8, !tbaa !7
  %10 = and i64 %8, %9
  ret i64 %10
}

; Function Attrs: nounwind sspstrong uwtable
define internal i64 @big_rshift(i64 noundef %0, i64 noundef %1) #0 {
  %3 = alloca i64, align 8
  %4 = alloca i64, align 8
  %5 = alloca i64, align 8
  %6 = alloca i32, align 4
  store i64 %0, ptr %3, align 8, !tbaa !7
  store i64 %1, ptr %4, align 8, !tbaa !7
  call void @llvm.lifetime.start.p0(i64 8, ptr %5) #24
  %7 = load i64, ptr %4, align 8, !tbaa !7
  %8 = udiv i64 %7, 32
  store i64 %8, ptr %5, align 8, !tbaa !7
  call void @llvm.lifetime.start.p0(i64 4, ptr %6) #24
  %9 = load i64, ptr %4, align 8, !tbaa !7
  %10 = urem i64 %9, 32
  %11 = trunc i64 %10 to i32
  store i32 %11, ptr %6, align 4, !tbaa !19
  %12 = load i64, ptr %3, align 8, !tbaa !7
  %13 = load i64, ptr %5, align 8, !tbaa !7
  %14 = load i32, ptr %6, align 4, !tbaa !19
  %15 = call i64 @big_shift3(i64 noundef %12, i32 noundef 0, i64 noundef %13, i32 noundef %14)
  call void @llvm.lifetime.end.p0(i64 4, ptr %6) #24
  call void @llvm.lifetime.end.p0(i64 8, ptr %5) #24
  ret i64 %15
}

; Function Attrs: nounwind sspstrong uwtable
define internal i64 @big_lshift(i64 noundef %0, i64 noundef %1) #0 {
  %3 = alloca i64, align 8
  %4 = alloca i64, align 8
  %5 = alloca i64, align 8
  %6 = alloca i32, align 4
  store i64 %0, ptr %3, align 8, !tbaa !7
  store i64 %1, ptr %4, align 8, !tbaa !7
  call void @llvm.lifetime.start.p0(i64 8, ptr %5) #24
  %7 = load i64, ptr %4, align 8, !tbaa !7
  %8 = udiv i64 %7, 32
  store i64 %8, ptr %5, align 8, !tbaa !7
  call void @llvm.lifetime.start.p0(i64 4, ptr %6) #24
  %9 = load i64, ptr %4, align 8, !tbaa !7
  %10 = urem i64 %9, 32
  %11 = trunc i64 %10 to i32
  store i32 %11, ptr %6, align 4, !tbaa !19
  %12 = load i64, ptr %3, align 8, !tbaa !7
  %13 = load i64, ptr %5, align 8, !tbaa !7
  %14 = load i32, ptr %6, align 4, !tbaa !19
  %15 = call i64 @big_shift3(i64 noundef %12, i32 noundef 1, i64 noundef %13, i32 noundef %14)
  call void @llvm.lifetime.end.p0(i64 4, ptr %6) #24
  call void @llvm.lifetime.end.p0(i64 8, ptr %5) #24
  ret i64 %15
}

; Function Attrs: inlinehint nounwind sspstrong uwtable
define internal i32 @nlz_int(i32 noundef %0) #2 {
  %2 = alloca i32, align 4
  store i32 %0, ptr %2, align 4, !tbaa !19
  %3 = load i32, ptr %2, align 4, !tbaa !19
  %4 = call i32 @nlz_int32(i32 noundef %3)
  ret i32 %4
}

; Function Attrs: inlinehint nounwind sspstrong uwtable
define internal zeroext i1 @BIGNUM_EMBED_P(i64 noundef %0) #2 {
  %2 = alloca i64, align 8
  store i64 %0, ptr %2, align 8, !tbaa !7
  %3 = load i64, ptr %2, align 8, !tbaa !7
  %4 = call i64 @RB_FL_TEST_RAW(i64 noundef %3, i64 noundef 16384) #26
  %5 = icmp ne i64 %4, 0
  ret i1 %5
}

; Function Attrs: nounwind sspstrong uwtable
define internal i64 @big_shift(i64 noundef %0, i64 noundef %1) #0 {
  %3 = alloca i64, align 8
  %4 = alloca i64, align 8
  %5 = alloca i64, align 8
  store i64 %0, ptr %4, align 8, !tbaa !7
  store i64 %1, ptr %5, align 8, !tbaa !7
  %6 = load i64, ptr %5, align 8, !tbaa !7
  %7 = icmp slt i64 %6, 0
  br i1 %7, label %8, label %15

8:                                                ; preds = %2
  %9 = load i64, ptr %4, align 8, !tbaa !7
  %10 = load i64, ptr %5, align 8, !tbaa !7
  %11 = add i64 %10, 1
  %12 = sub i64 0, %11
  %13 = add i64 1, %12
  %14 = call i64 @big_lshift(i64 noundef %9, i64 noundef %13)
  store i64 %14, ptr %3, align 8
  br label %25

15:                                               ; preds = %2
  %16 = load i64, ptr %5, align 8, !tbaa !7
  %17 = icmp sgt i64 %16, 0
  br i1 %17, label %18, label %22

18:                                               ; preds = %15
  %19 = load i64, ptr %4, align 8, !tbaa !7
  %20 = load i64, ptr %5, align 8, !tbaa !7
  %21 = call i64 @big_rshift(i64 noundef %19, i64 noundef %20)
  store i64 %21, ptr %3, align 8
  br label %25

22:                                               ; preds = %15
  br label %23

23:                                               ; preds = %22
  %24 = load i64, ptr %4, align 8, !tbaa !7
  store i64 %24, ptr %3, align 8
  br label %25

25:                                               ; preds = %23, %18, %8
  %26 = load i64, ptr %3, align 8
  ret i64 %26
}

; Function Attrs: nounwind sspstrong uwtable
define internal i32 @nlz(i32 noundef %0) #0 {
  %2 = alloca i32, align 4
  store i32 %0, ptr %2, align 4, !tbaa !19
  %3 = load i32, ptr %2, align 4, !tbaa !19
  %4 = call i32 @nlz_int(i32 noundef %3)
  %5 = sub i32 %4, 0
  ret i32 %5
}

; Function Attrs: inlinehint nounwind sspstrong uwtable
define internal ptr @BIGNUM_DIGITS(i64 noundef %0) #2 {
  %2 = alloca ptr, align 8
  %3 = alloca i64, align 8
  store i64 %0, ptr %3, align 8, !tbaa !7
  %4 = load i64, ptr %3, align 8, !tbaa !7
  %5 = call zeroext i1 @BIGNUM_EMBED_P(i64 noundef %4)
  br i1 %5, label %6, label %11

6:                                                ; preds = %1
  %7 = load i64, ptr %3, align 8, !tbaa !7
  %8 = inttoptr i64 %7 to ptr
  %9 = getelementptr inbounds nuw %struct.RBignum, ptr %8, i32 0, i32 1
  %10 = getelementptr inbounds [6 x i32], ptr %9, i64 0, i64 0
  store ptr %10, ptr %2, align 8
  br label %17

11:                                               ; preds = %1
  %12 = load i64, ptr %3, align 8, !tbaa !7
  %13 = inttoptr i64 %12 to ptr
  %14 = getelementptr inbounds nuw %struct.RBignum, ptr %13, i32 0, i32 1
  %15 = getelementptr inbounds nuw %struct.anon, ptr %14, i32 0, i32 1
  %16 = load ptr, ptr %15, align 8, !tbaa !16
  store ptr %16, ptr %2, align 8
  br label %17

17:                                               ; preds = %11, %6
  %18 = load ptr, ptr %2, align 8
  ret ptr %18
}

; Function Attrs: inlinehint nounwind sspstrong uwtable
define internal i64 @BIGNUM_LEN(i64 noundef %0) #2 {
  %2 = alloca i64, align 8
  %3 = alloca i64, align 8
  %4 = alloca i64, align 8
  store i64 %0, ptr %3, align 8, !tbaa !7
  %5 = load i64, ptr %3, align 8, !tbaa !7
  %6 = call zeroext i1 @BIGNUM_EMBED_P(i64 noundef %5)
  br i1 %6, label %13, label %7

7:                                                ; preds = %1
  %8 = load i64, ptr %3, align 8, !tbaa !7
  %9 = inttoptr i64 %8 to ptr
  %10 = getelementptr inbounds nuw %struct.RBignum, ptr %9, i32 0, i32 1
  %11 = getelementptr inbounds nuw %struct.anon, ptr %10, i32 0, i32 0
  %12 = load i64, ptr %11, align 8, !tbaa !16
  store i64 %12, ptr %2, align 8
  br label %23

13:                                               ; preds = %1
  call void @llvm.lifetime.start.p0(i64 8, ptr %4) #24
  %14 = load i64, ptr %3, align 8, !tbaa !7
  %15 = inttoptr i64 %14 to ptr
  %16 = getelementptr inbounds nuw %struct.RBasic, ptr %15, i32 0, i32 0
  %17 = load i64, ptr %16, align 8, !tbaa !17
  store i64 %17, ptr %4, align 8, !tbaa !7
  %18 = load i64, ptr %4, align 8, !tbaa !7
  %19 = and i64 %18, 229376
  store i64 %19, ptr %4, align 8, !tbaa !7
  %20 = load i64, ptr %4, align 8, !tbaa !7
  %21 = lshr i64 %20, 15
  store i64 %21, ptr %4, align 8, !tbaa !7
  %22 = load i64, ptr %4, align 8, !tbaa !7
  store i64 %22, ptr %2, align 8
  call void @llvm.lifetime.end.p0(i64 8, ptr %4) #24
  br label %23

23:                                               ; preds = %13, %7
  %24 = load i64, ptr %2, align 8
  ret i64 %24
}

; Function Attrs: inlinehint nounwind sspstrong uwtable
define internal i64 @bigtrunc(i64 noundef %0) #2 {
  %2 = alloca i64, align 8
  %3 = alloca i64, align 8
  %4 = alloca i64, align 8
  %5 = alloca ptr, align 8
  %6 = alloca i32, align 4
  store i64 %0, ptr %3, align 8, !tbaa !7
  call void @llvm.lifetime.start.p0(i64 8, ptr %4) #24
  %7 = load i64, ptr %3, align 8, !tbaa !7
  %8 = call i64 @BIGNUM_LEN(i64 noundef %7)
  store i64 %8, ptr %4, align 8, !tbaa !7
  call void @llvm.lifetime.start.p0(i64 8, ptr %5) #24
  %9 = load i64, ptr %3, align 8, !tbaa !7
  %10 = call ptr @BIGNUM_DIGITS(i64 noundef %9)
  store ptr %10, ptr %5, align 8, !tbaa !24
  %11 = load i64, ptr %4, align 8, !tbaa !7
  %12 = icmp eq i64 %11, 0
  br i1 %12, label %13, label %15

13:                                               ; preds = %1
  %14 = load i64, ptr %3, align 8, !tbaa !7
  store i64 %14, ptr %2, align 8
  store i32 1, ptr %6, align 4
  br label %42

15:                                               ; preds = %1
  br label %16

16:                                               ; preds = %29, %15
  %17 = load i64, ptr %4, align 8, !tbaa !7
  %18 = add i64 %17, -1
  store i64 %18, ptr %4, align 8, !tbaa !7
  %19 = icmp ne i64 %18, 0
  br i1 %19, label %20, label %27

20:                                               ; preds = %16
  %21 = load ptr, ptr %5, align 8, !tbaa !24
  %22 = load i64, ptr %4, align 8, !tbaa !7
  %23 = getelementptr i32, ptr %21, i64 %22
  %24 = load i32, ptr %23, align 4, !tbaa !19
  %25 = icmp ne i32 %24, 0
  %26 = xor i1 %25, true
  br label %27

27:                                               ; preds = %20, %16
  %28 = phi i1 [ false, %16 ], [ %26, %20 ]
  br i1 %28, label %29, label %30

29:                                               ; preds = %27
  br label %16, !llvm.loop !59

30:                                               ; preds = %27
  %31 = load i64, ptr %3, align 8, !tbaa !7
  %32 = call i64 @BIGNUM_LEN(i64 noundef %31)
  %33 = load i64, ptr %4, align 8, !tbaa !7
  %34 = add i64 %33, 1
  %35 = icmp ugt i64 %32, %34
  br i1 %35, label %36, label %40

36:                                               ; preds = %30
  %37 = load i64, ptr %3, align 8, !tbaa !7
  %38 = load i64, ptr %4, align 8, !tbaa !7
  %39 = add i64 %38, 1
  call void @rb_big_resize(i64 noundef %37, i64 noundef %39)
  br label %40

40:                                               ; preds = %36, %30
  %41 = load i64, ptr %3, align 8, !tbaa !7
  store i64 %41, ptr %2, align 8
  store i32 1, ptr %6, align 4
  br label %42

42:                                               ; preds = %40, %13
  call void @llvm.lifetime.end.p0(i64 8, ptr %5) #24
  call void @llvm.lifetime.end.p0(i64 8, ptr %4) #24
  %43 = load i64, ptr %2, align 8
  ret i64 %43
}

; Function Attrs: nounwind sspstrong uwtable
define internal double @big_fdiv_int(i64 noundef %0, i64 noundef %1) #0 {
  %3 = alloca i64, align 8
  %4 = alloca i64, align 8
  %5 = alloca i64, align 8
  %6 = alloca i64, align 8
  store i64 %0, ptr %3, align 8, !tbaa !7
  store i64 %1, ptr %4, align 8, !tbaa !7
  call void @llvm.lifetime.start.p0(i64 8, ptr %5) #24
  call void @llvm.lifetime.start.p0(i64 8, ptr %6) #24
  %7 = load i64, ptr %4, align 8, !tbaa !7
  %8 = call i64 @bigtrunc(i64 noundef %7)
  %9 = load i64, ptr %4, align 8, !tbaa !7
  %10 = call i64 @BIGNUM_LEN(i64 noundef %9)
  store i64 %10, ptr %5, align 8, !tbaa !7
  %11 = load i64, ptr %5, align 8, !tbaa !7
  %12 = mul i64 %11, 32
  %13 = load i64, ptr %4, align 8, !tbaa !7
  %14 = call ptr @BIGNUM_DIGITS(i64 noundef %13)
  %15 = load i64, ptr %5, align 8, !tbaa !7
  %16 = sub i64 %15, 1
  %17 = getelementptr i32, ptr %14, i64 %16
  %18 = load i32, ptr %17, align 4, !tbaa !19
  %19 = call i32 @nlz(i32 noundef %18)
  %20 = sext i32 %19 to i64
  %21 = sub i64 %12, %20
  store i64 %21, ptr %6, align 8, !tbaa !7
  %22 = load i64, ptr %6, align 8, !tbaa !7
  %23 = sub i64 %22, 64
  store i64 %23, ptr %6, align 8, !tbaa !7
  %24 = load i64, ptr %6, align 8, !tbaa !7
  %25 = icmp ne i64 %24, 0
  br i1 %25, label %26, label %30

26:                                               ; preds = %2
  %27 = load i64, ptr %4, align 8, !tbaa !7
  %28 = load i64, ptr %6, align 8, !tbaa !7
  %29 = call i64 @big_shift(i64 noundef %27, i64 noundef %28)
  store i64 %29, ptr %4, align 8, !tbaa !7
  br label %30

30:                                               ; preds = %26, %2
  %31 = load i64, ptr %3, align 8, !tbaa !7
  %32 = load i64, ptr %4, align 8, !tbaa !7
  %33 = load i64, ptr %6, align 8, !tbaa !7
  %34 = call double @big_fdiv(i64 noundef %31, i64 noundef %32, i64 noundef %33)
  call void @llvm.lifetime.end.p0(i64 8, ptr %6) #24
  call void @llvm.lifetime.end.p0(i64 8, ptr %5) #24
  ret double %34
}