; Function Attrs: nounwind sspstrong uwtable
define internal fastcc double @big_fdiv_int(i64 noundef %0, i64 noundef %1) unnamed_addr #0 {
  %3 = inttoptr i64 %1 to ptr
  %4 = load i64, ptr %3, align 8, !tbaa !11
  %5 = and i64 %4, 16384
  %.not.i.i = icmp eq i64 %5, 0
  br i1 %.not.i.i, label %10, label %6

6:                                                ; preds = %2
  %7 = lshr i64 %4, 15
  %8 = and i64 %7, 7
  %9 = getelementptr inbounds nuw i8, ptr %3, i64 16
  br label %BIGNUM_DIGITS.exit.i

10:                                               ; preds = %2
  %11 = getelementptr inbounds nuw i8, ptr %3, i64 16
  %12 = load i64, ptr %11, align 8, !tbaa !13
  %13 = getelementptr inbounds nuw i8, ptr %3, i64 24
  %14 = load ptr, ptr %13, align 8, !tbaa !13
  br label %BIGNUM_DIGITS.exit.i

BIGNUM_DIGITS.exit.i:                             ; preds = %10, %6
  %.0.i21.i = phi i64 [ %8, %6 ], [ %12, %10 ]
  %.0.i16.i = phi ptr [ %9, %6 ], [ %14, %10 ]
  %15 = icmp eq i64 %.0.i21.i, 0
  br i1 %15, label %bigtrunc.exit, label %.preheader.i

.preheader.i:                                     ; preds = %BIGNUM_DIGITS.exit.i, %17
  %.012.i = phi i64 [ %16, %17 ], [ %.0.i21.i, %BIGNUM_DIGITS.exit.i ]
  %16 = add i64 %.012.i, -1
  %.not.i = icmp eq i64 %16, 0
  br i1 %.not.i, label %.critedge.i, label %17

17:                                               ; preds = %.preheader.i
  %18 = getelementptr i32, ptr %.0.i16.i, i64 %16
  %19 = load i32, ptr %18, align 4, !tbaa !18
  %.not14.i = icmp eq i32 %19, 0
  br i1 %.not14.i, label %.preheader.i, label %.critedge.i, !llvm.loop !63

.critedge.i:                                      ; preds = %17, %.preheader.i
  br i1 %.not.i.i, label %20, label %23

20:                                               ; preds = %.critedge.i
  %21 = getelementptr inbounds nuw i8, ptr %3, i64 16
  %22 = load i64, ptr %21, align 8, !tbaa !13
  br label %BIGNUM_LEN.exit19.i

23:                                               ; preds = %.critedge.i
  %24 = lshr i64 %4, 15
  %25 = and i64 %24, 7
  br label %BIGNUM_LEN.exit19.i

BIGNUM_LEN.exit19.i:                              ; preds = %23, %20
  %.0.i18.i = phi i64 [ %25, %23 ], [ %22, %20 ]
  %26 = icmp ugt i64 %.0.i18.i, %.012.i
  br i1 %26, label %27, label %bigtrunc.exit

27:                                               ; preds = %BIGNUM_LEN.exit19.i
  tail call void @rb_big_resize(i64 noundef %1, i64 noundef %.012.i)
  %.pre = load i64, ptr %3, align 8, !tbaa !11
  br label %bigtrunc.exit

bigtrunc.exit:                                    ; preds = %BIGNUM_DIGITS.exit.i, %BIGNUM_LEN.exit19.i, %27
  %28 = phi i64 [ %4, %BIGNUM_DIGITS.exit.i ], [ %4, %BIGNUM_LEN.exit19.i ], [ %.pre, %27 ]
  %29 = and i64 %28, 16384
  %.not.i14 = icmp eq i64 %29, 0
  br i1 %.not.i14, label %34, label %30

30:                                               ; preds = %bigtrunc.exit
  %31 = lshr i64 %28, 15
  %32 = and i64 %31, 7
  %33 = getelementptr inbounds nuw i8, ptr %3, i64 16
  br label %BIGNUM_DIGITS.exit

34:                                               ; preds = %bigtrunc.exit
  %35 = getelementptr inbounds nuw i8, ptr %3, i64 16
  %36 = load i64, ptr %35, align 8, !tbaa !13
  %37 = getelementptr inbounds nuw i8, ptr %3, i64 24
  %38 = load ptr, ptr %37, align 8, !tbaa !13
  br label %BIGNUM_DIGITS.exit

BIGNUM_DIGITS.exit:                               ; preds = %30, %34
  %.0.i20 = phi i64 [ %32, %30 ], [ %36, %34 ]
  %.0.i16 = phi ptr [ %33, %30 ], [ %38, %34 ]
  %39 = shl i64 %.0.i20, 5
  %40 = getelementptr i32, ptr %.0.i16, i64 %.0.i20
  %41 = getelementptr i8, ptr %40, i64 -4
  %42 = load i32, ptr %41, align 4, !tbaa !18
  %43 = tail call range(i32 0, 33) i32 @llvm.ctlz.i32(i32 %42, i1 false)
  %44 = zext nneg i32 %43 to i64
  %45 = sub i64 %39, %44
  %46 = add i64 %45, -64
  %.not = icmp eq i64 %46, 0
  br i1 %.not, label %.split, label %.split13

.split:                                           ; preds = %BIGNUM_DIGITS.exit
  %47 = tail call fastcc double @big_fdiv(i64 noundef %0, i64 noundef %1, i64 noundef 0)
  br label %55

.split13:                                         ; preds = %BIGNUM_DIGITS.exit
  %48 = icmp slt i64 %46, 0
  %49 = sub i64 64, %45
  %spec.select = select i1 %48, i64 %49, i64 %46
  %.lobit = lshr i64 %46, 63
  %spec.select22 = trunc nuw nsw i64 %.lobit to i32
  %50 = lshr i64 %spec.select, 5
  %51 = trunc i64 %spec.select to i32
  %52 = and i32 %51, 31
  %53 = tail call fastcc i64 @big_shift3(i64 noundef %1, i32 noundef %spec.select22, i64 noundef %50, i32 noundef %52)
  %54 = tail call fastcc double @big_fdiv(i64 noundef %0, i64 noundef %53, i64 noundef %46)
  br label %55

55:                                               ; preds = %.split, %.split13
  %phi.call = phi double [ %47, %.split ], [ %54, %.split13 ]
  ret double %phi.call
}